target datalayout = "e-m:e-p270:32:32-p271:32:32-p272:64:64-i64:64-i128:128-f80:128-n8:16:32:64-S128"
target triple = "x86_64-unknown-linux-gnu"

%"class.std::__cxx11::basic_string" = type { %"struct.std::__cxx11::basic_string<char>::_Alloc_hider", i64, %union.anon }
%"struct.std::__cxx11::basic_string<char>::_Alloc_hider" = type { ptr }
%union.anon = type { i64, [8 x i8] }
%"class.base::HistogramBase" = type <{ ptr, %"class.std::__cxx11::basic_string", i32, [4 x i8] }>
%"class.base::Callback" = type { %"class.base::internal::CallbackBase" }
%"class.base::internal::CallbackBase" = type { %"class.base::internal::CallbackBase.24" }
%"class.base::internal::CallbackBase.24" = type { %class.scoped_refptr }
%class.scoped_refptr = type { ptr }
%"class.base::internal::BindStateBase" = type { ptr, i32, ptr, ptr }

; Function Attrs: mustprogress nounwind uwtable
define linkonce_odr dso_local noundef ptr @_ZNK13scoped_refptrIN4base8internal13BindStateBaseEEptEv(ptr noundef nonnull align 8 dereferenceable(8) %this) #3 comdat align 2 {
entry:
  %this.addr = alloca ptr, align 8
  store ptr %this, ptr %this.addr, align 8
  %this1 = load ptr, ptr %this.addr, align 8
  %ptr_ = getelementptr inbounds %class.scoped_refptr, ptr %this1, i32 0, i32 0
  %0 = load ptr, ptr %ptr_, align 8
  ret ptr %0
}

; Function Attrs: noreturn nounwind uwtable
define linkonce_odr hidden void @__clang_call_terminate(ptr noundef %0) #8 comdat {
  %2 = call ptr @__cxa_begin_catch(ptr %0) #10
  call void @_ZSt9terminatev() #12
  unreachable
}

; Function Attrs: mustprogress nounwind uwtable
define linkonce_odr dso_local noundef i32 @_ZStanSt12memory_orderSt23__memory_order_modifier(i32 noundef %__m, i32 noundef %__mod) #3 comdat {
entry:
  %__m.addr = alloca i32, align 4
  %__mod.addr = alloca i32, align 4
  store i32 %__m, ptr %__m.addr, align 4
  store i32 %__mod, ptr %__mod.addr, align 4
  %0 = load i32, ptr %__m.addr, align 4
  %1 = load i32, ptr %__mod.addr, align 4
  %and = and i32 %0, %1
  ret i32 %and
}

; Function Attrs: mustprogress nounwind uwtable
define linkonce_odr dso_local void @_ZN4base8internal12CallbackBaseILNS0_8CopyModeE1EED2Ev(ptr noundef nonnull align 8 dereferenceable(8) %this) unnamed_addr #3 comdat align 2 {
entry:
  %this.addr = alloca ptr, align 8
  store ptr %this, ptr %this.addr, align 8
  %this1 = load ptr, ptr %this.addr, align 8
  call void @_ZN4base8internal12CallbackBaseILNS0_8CopyModeE0EED2Ev(ptr noundef nonnull align 8 dereferenceable(8) %this1) #10
  ret void
}

; Function Attrs: mustprogress uwtable
define linkonce_odr dso_local noundef ptr @_ZNK4base8internal12CallbackBaseILNS0_8CopyModeE0EE18polymorphic_invokeEv(ptr noundef nonnull align 8 dereferenceable(8) %this) #0 comdat align 2 {
entry:
  %this.addr = alloca ptr, align 8
  store ptr %this, ptr %this.addr, align 8
  %this1 = load ptr, ptr %this.addr, align 8
  %bind_state_ = getelementptr inbounds %"class.base::internal::CallbackBase.24", ptr %this1, i32 0, i32 0
  %call = call noundef ptr @_ZNK13scoped_refptrIN4base8internal13BindStateBaseEEptEv(ptr noundef nonnull align 8 dereferenceable(8) %bind_state_)
  %polymorphic_invoke_ = getelementptr inbounds %"class.base::internal::BindStateBase", ptr %call, i32 0, i32 0
  %0 = load ptr, ptr %polymorphic_invoke_, align 8
  ret ptr %0
}

; Function Attrs: mustprogress nounwind uwtable
define linkonce_odr dso_local noundef ptr @_ZNK13scoped_refptrIN4base8internal13BindStateBaseEE3getEv(ptr noundef nonnull align 8 dereferenceable(8) %this) #3 comdat align 2 {
entry:
  %this.addr = alloca ptr, align 8
  store ptr %this, ptr %this.addr, align 8
  %this1 = load ptr, ptr %this.addr, align 8
  %ptr_ = getelementptr inbounds %class.scoped_refptr, ptr %this1, i32 0, i32 0
  %0 = load ptr, ptr %ptr_, align 8
  ret ptr %0
}

; Function Attrs: mustprogress nounwind uwtable
define linkonce_odr dso_local noundef i32 @_ZN4base6subtle14NoBarrier_LoadEPVKi(ptr noundef %ptr) #3 comdat personality ptr @__gxx_personality_v0 {
entry:
  %this.addr.i = alloca ptr, align 8
  %__m.addr.i = alloca i32, align 4
  %__b.i = alloca i32, align 4
  %atomic-temp.i = alloca i32, align 4
  %ptr.addr = alloca ptr, align 8
  store ptr %ptr, ptr %ptr.addr, align 8
  %0 = load ptr, ptr %ptr.addr, align 8
  store ptr %0, ptr %this.addr.i, align 8
  store i32 0, ptr %__m.addr.i, align 4
  %this1.i = load ptr, ptr %this.addr.i, align 8
  %1 = load i32, ptr %__m.addr.i, align 4
  %call.i = invoke noundef i32 @_ZStanSt12memory_orderSt23__memory_order_modifier(i32 noundef %1, i32 noundef 65535)
          to label %invoke.cont.i unwind label %terminate.lpad.i

invoke.cont.i:                                    ; preds = %entry
  store i32 %call.i, ptr %__b.i, align 4
  %2 = load i32, ptr %__m.addr.i, align 4
  switch i32 %2, label %monotonic.i [
    i32 1, label %acquire.i
    i32 2, label %acquire.i
    i32 5, label %seqcst.i
  ]

monotonic.i:                                      ; preds = %invoke.cont.i
  %3 = load atomic volatile i32, ptr %this1.i monotonic, align 4
  store i32 %3, ptr %atomic-temp.i, align 4
  br label %_ZNVKSt13__atomic_baseIiE4loadESt12memory_order.exit

acquire.i:                                        ; preds = %invoke.cont.i, %invoke.cont.i
  %4 = load atomic volatile i32, ptr %this1.i acquire, align 4
  store i32 %4, ptr %atomic-temp.i, align 4
  br label %_ZNVKSt13__atomic_baseIiE4loadESt12memory_order.exit

seqcst.i:                                         ; preds = %invoke.cont.i
  %5 = load atomic volatile i32, ptr %this1.i seq_cst, align 4
  store i32 %5, ptr %atomic-temp.i, align 4
  br label %_ZNVKSt13__atomic_baseIiE4loadESt12memory_order.exit

terminate.lpad.i:                                 ; preds = %entry
  %6 = landingpad { ptr, i32 }
          catch ptr null
  %7 = extractvalue { ptr, i32 } %6, 0
  call void @__clang_call_terminate(ptr %7) #12
  unreachable

_ZNVKSt13__atomic_baseIiE4loadESt12memory_order.exit: ; preds = %seqcst.i, %acquire.i, %monotonic.i
  %8 = load i32, ptr %atomic-temp.i, align 4
  ret i32 %8
}

; Function Attrs: mustprogress nounwind uwtable
define linkonce_odr dso_local void @_ZN4base8CallbackIFviELNS_8internal8CopyModeE1ELNS2_10RepeatModeE1EED2Ev(ptr noundef nonnull align 8 dereferenceable(8) %this) unnamed_addr #3 comdat align 2 {
entry:
  %this.addr = alloca ptr, align 8
  store ptr %this, ptr %this.addr, align 8
  %this1 = load ptr, ptr %this.addr, align 8
  call void @_ZN4base8internal12CallbackBaseILNS0_8CopyModeE1EED2Ev(ptr noundef nonnull align 8 dereferenceable(8) %this1) #10
  ret void
}

; Function Attrs: mustprogress uwtable
define linkonce_odr dso_local void @_ZNK4base8internal8RunMixinINS_8CallbackIFviELNS0_8CopyModeE1ELNS0_10RepeatModeE1EEEE3RunEi(ptr noundef nonnull align 1 dereferenceable(1) %this, i32 noundef %args) #0 comdat align 2 {
entry:
  %this.addr = alloca ptr, align 8
  %args.addr = alloca i32, align 4
  %cb = alloca ptr, align 8
  %f = alloca ptr, align 8
  store ptr %this, ptr %this.addr, align 8
  store i32 %args, ptr %args.addr, align 4
  %this1 = load ptr, ptr %this.addr, align 8
  store ptr %this1, ptr %cb, align 8
  %0 = load ptr, ptr %cb, align 8
  %call = call noundef ptr @_ZNK4base8internal12CallbackBaseILNS0_8CopyModeE0EE18polymorphic_invokeEv(ptr noundef nonnull align 8 dereferenceable(8) %0)
  store ptr %call, ptr %f, align 8
  %1 = load ptr, ptr %f, align 8
  %2 = load ptr, ptr %cb, align 8
  %bind_state_ = getelementptr inbounds %"class.base::internal::CallbackBase.24", ptr %2, i32 0, i32 0
  %call2 = call noundef ptr @_ZNK13scoped_refptrIN4base8internal13BindStateBaseEE3getEv(ptr noundef nonnull align 8 dereferenceable(8) %bind_state_)
  call void %1(ptr noundef %call2, ptr noundef nonnull align 4 dereferenceable(4) %args.addr)
  ret void
}

; Function Attrs: mustprogress uwtable
define linkonce_odr dso_local noundef zeroext i1 @_ZNK4base8internal12CallbackBaseILNS0_8CopyModeE0EE7is_nullEv(ptr noundef nonnull align 8 dereferenceable(8) %this) #0 comdat align 2 {
entry:
  %this.addr = alloca ptr, align 8
  store ptr %this, ptr %this.addr, align 8
  %this1 = load ptr, ptr %this.addr, align 8
  %bind_state_ = getelementptr inbounds %"class.base::internal::CallbackBase.24", ptr %this1, i32 0, i32 0
  %call = call noundef ptr @_ZNK13scoped_refptrIN4base8internal13BindStateBaseEE3getEv(ptr noundef nonnull align 8 dereferenceable(8) %bind_state_)
  %cmp = icmp eq ptr %call, null
  ret i1 %cmp
}

; Function Attrs: mustprogress nounwind uwtable
define linkonce_odr dso_local noundef nonnull align 8 dereferenceable(32) ptr @_ZNK4base13HistogramBase14histogram_nameB5cxx11Ev(ptr noundef nonnull align 8 dereferenceable(44) %this) #3 comdat align 2 {
entry:
  %this.addr = alloca ptr, align 8
  store ptr %this, ptr %this.addr, align 8
  %this1 = load ptr, ptr %this.addr, align 8
  %histogram_name_ = getelementptr inbounds %"class.base::HistogramBase", ptr %this1, i32 0, i32 1
  ret ptr %histogram_name_
}

; Function Attrs: mustprogress nounwind uwtable
define linkonce_odr dso_local noundef i32 @_ZNK4base13HistogramBase5flagsEv(ptr noundef nonnull align 8 dereferenceable(44) %this) #3 comdat align 2 {
entry:
  %this.addr = alloca ptr, align 8
  store ptr %this, ptr %this.addr, align 8
  %this1 = load ptr, ptr %this.addr, align 8
  %flags_ = getelementptr inbounds %"class.base::HistogramBase", ptr %this1, i32 0, i32 2
  %call = call noundef i32 @_ZN4base6subtle14NoBarrier_LoadEPVKi(ptr noundef %flags_)
  ret i32 %call
}

; Function Attrs: mustprogress uwtable
define dso_local void @_ZNK4base13HistogramBase18FindAndRunCallbackEi(ptr noundef nonnull align 8 dereferenceable(44) %this, i32 noundef %sample) #0 align 2 personality ptr @__gxx_personality_v0 {
entry:
  %this.addr = alloca ptr, align 8
  %sample.addr = alloca i32, align 4
  %cb = alloca %"class.base::Callback", align 8
  %exn.slot = alloca ptr, align 8
  %ehselector.slot = alloca i32, align 4
  store ptr %this, ptr %this.addr, align 8
  store i32 %sample, ptr %sample.addr, align 4
  %this1 = load ptr, ptr %this.addr, align 8
  %call = call noundef i32 @_ZNK4base13HistogramBase5flagsEv(ptr noundef nonnull align 8 dereferenceable(44) %this1)
  %and = and i32 %call, 32
  %cmp = icmp eq i32 %and, 0
  br i1 %cmp, label %if.then, label %if.end

if.then:                                          ; preds = %entry
  br label %return

if.end:                                           ; preds = %entry
  %call2 = call noundef nonnull align 8 dereferenceable(32) ptr @_ZNK4base13HistogramBase14histogram_nameB5cxx11Ev(ptr noundef nonnull align 8 dereferenceable(44) %this1)
  call void @_ZN4base18StatisticsRecorder12FindCallbackERKNSt7__cxx1112basic_stringIcSt11char_traitsIcESaIcEEE(ptr sret(%"class.base::Callback") align 8 %cb, ptr noundef nonnull align 8 dereferenceable(32) %call2)
  %call3 = invoke noundef zeroext i1 @_ZNK4base8internal12CallbackBaseILNS0_8CopyModeE0EE7is_nullEv(ptr noundef nonnull align 8 dereferenceable(8) %cb)
          to label %invoke.cont unwind label %lpad

invoke.cont:                                      ; preds = %if.end
  br i1 %call3, label %if.end6, label %if.then4

if.then4:                                         ; preds = %invoke.cont
  %0 = load i32, ptr %sample.addr, align 4
  invoke void @_ZNK4base8internal8RunMixinINS_8CallbackIFviELNS0_8CopyModeE1ELNS0_10RepeatModeE1EEEE3RunEi(ptr noundef nonnull align 1 dereferenceable(1) %cb, i32 noundef %0)
          to label %invoke.cont5 unwind label %lpad

invoke.cont5:                                     ; preds = %if.then4
  br label %if.end6

lpad:                                             ; preds = %if.then4, %if.end
  %1 = landingpad { ptr, i32 }
          cleanup
  %2 = extractvalue { ptr, i32 } %1, 0
  store ptr %2, ptr %exn.slot, align 8
  %3 = extractvalue { ptr, i32 } %1, 1
  store i32 %3, ptr %ehselector.slot, align 4
  call void @_ZN4base8CallbackIFviELNS_8internal8CopyModeE1ELNS2_10RepeatModeE1EED2Ev(ptr noundef nonnull align 8 dereferenceable(8) %cb) #10
  br label %eh.resume

if.end6:                                          ; preds = %invoke.cont5, %invoke.cont
  call void @_ZN4base8CallbackIFviELNS_8internal8CopyModeE1ELNS2_10RepeatModeE1EED2Ev(ptr noundef nonnull align 8 dereferenceable(8) %cb) #10
  br label %return

return:                                           ; preds = %if.end6, %if.then
  ret void

eh.resume:                                        ; preds = %lpad
  %exn = load ptr, ptr %exn.slot, align 8
  %sel = load i32, ptr %ehselector.slot, align 4
  %lpad.val = insertvalue { ptr, i32 } poison, ptr %exn, 0
  %lpad.val7 = insertvalue { ptr, i32 } %lpad.val, i32 %sel, 1
  resume { ptr, i32 } %lpad.val7
}