; Function Attrs: mustprogress uwtable
define dso_local void @_ZNK4base13HistogramBase18FindAndRunCallbackEi(ptr noundef nonnull align 8 dereferenceable(44) %this, i32 noundef %sample) local_unnamed_addr #0 align 2 personality ptr @__gxx_personality_v0 {
entry:
  %args.addr.i = alloca i32, align 4
  %cb = alloca %"class.base::Callback", align 8
  %flags_.i = getelementptr inbounds i8, ptr %this, i64 40
  %0 = load atomic volatile i32, ptr %flags_.i monotonic, align 8
  %and = and i32 %0, 32
  %cmp = icmp eq i32 %and, 0
  br i1 %cmp, label %return, label %invoke.cont

invoke.cont:                                      ; preds = %entry
  %histogram_name_.i = getelementptr inbounds i8, ptr %this, i64 8
  call void @_ZN4base18StatisticsRecorder12FindCallbackERKNSt7__cxx1112basic_stringIcSt11char_traitsIcESaIcEEE(ptr nonnull sret(%"class.base::Callback") align 8 %cb, ptr noundef nonnull align 8 dereferenceable(32) %histogram_name_.i)
  %1 = load ptr, ptr %cb, align 8
  %cmp.i = icmp eq ptr %1, null
  br i1 %cmp.i, label %if.end6, label %if.then4

if.then4:                                         ; preds = %invoke.cont
  call void @llvm.lifetime.start.p0(i64 4, ptr nonnull %args.addr.i)
  store i32 %sample, ptr %args.addr.i, align 4
  %2 = load ptr, ptr %1, align 8
  invoke void %2(ptr noundef nonnull %1, ptr noundef nonnull align 4 dereferenceable(4) %args.addr.i)
          to label %_ZNK4base8internal8RunMixinINS_8CallbackIFviELNS0_8CopyModeE1ELNS0_10RepeatModeE1EEEE3RunEi.exit unwind label %lpad

_ZNK4base8internal8RunMixinINS_8CallbackIFviELNS0_8CopyModeE1ELNS0_10RepeatModeE1EEEE3RunEi.exit: ; preds = %if.then4
  call void @llvm.lifetime.end.p0(i64 4, ptr nonnull %args.addr.i)
  br label %if.end6

lpad:                                             ; preds = %if.then4
  %3 = landingpad { ptr, i32 }
          cleanup
  call void @_ZN4base8internal12CallbackBaseILNS0_8CopyModeE0EED2Ev(ptr noundef nonnull align 8 dereferenceable(8) %cb) #14
  resume { ptr, i32 } %3

if.end6:                                          ; preds = %_ZNK4base8internal8RunMixinINS_8CallbackIFviELNS0_8CopyModeE1ELNS0_10RepeatModeE1EEEE3RunEi.exit, %invoke.cont
  call void @_ZN4base8internal12CallbackBaseILNS0_8CopyModeE0EED2Ev(ptr noundef nonnull align 8 dereferenceable(8) %cb) #14
  br label %return

return:                                           ; preds = %entry, %if.end6
  ret void
}